target datalayout = "e-m:e-p270:32:32-p271:32:32-p272:64:64-i64:64-i128:128-f80:128-n8:16:32:64-S128"
target triple = "x86_64-pc-linux-gnu"

%struct.lxb_html_tree = type { ptr, ptr, ptr, ptr, ptr, ptr, ptr, %struct.lxb_html_tree_pending_table_t, ptr, i8, i8, i8, i8, i8, i8, ptr, ptr, ptr, i32, i64 }
%struct.lxb_html_tree_pending_table_t = type { ptr, i8 }
%struct.lxb_dom_node = type { %struct.lxb_dom_event_target, i64, i64, i64, ptr, ptr, ptr, ptr, ptr, ptr, ptr, i32, i64 }
%struct.lxb_dom_event_target = type { ptr }
%struct.lexbor_array_t = type { ptr, i64, i64 }
%struct.lxb_html_template_element = type { %struct.lxb_html_element, ptr }
%struct.lxb_html_element = type { %struct.lxb_dom_element, ptr, ptr }
%struct.lxb_dom_element = type { %struct.lxb_dom_node, i64, i64, ptr, ptr, ptr, ptr, ptr, i32 }

; Function Attrs: nounwind uwtable
define internal ptr @lexbor_array_get(ptr noundef %0, i64 noundef %1) #0 {
  %3 = alloca ptr, align 8
  %4 = alloca ptr, align 8
  %5 = alloca i64, align 8
  store ptr %0, ptr %4, align 8
  store i64 %1, ptr %5, align 8
  %6 = load i64, ptr %5, align 8
  %7 = load ptr, ptr %4, align 8
  %8 = getelementptr inbounds %struct.lexbor_array_t, ptr %7, i32 0, i32 2
  %9 = load i64, ptr %8, align 8
  %10 = icmp uge i64 %6, %9
  br i1 %10, label %11, label %12

11:                                               ; preds = %2
  store ptr null, ptr %3, align 8
  br label %19

12:                                               ; preds = %2
  %13 = load ptr, ptr %4, align 8
  %14 = getelementptr inbounds %struct.lexbor_array_t, ptr %13, i32 0, i32 0
  %15 = load ptr, ptr %14, align 8
  %16 = load i64, ptr %5, align 8
  %17 = getelementptr inbounds ptr, ptr %15, i64 %16
  %18 = load ptr, ptr %17, align 8
  store ptr %18, ptr %3, align 8
  br label %19

19:                                               ; preds = %12, %11
  %20 = load ptr, ptr %3, align 8
  ret ptr %20
}

; Function Attrs: nounwind uwtable
define internal zeroext i1 @lxb_html_tree_node_is(ptr noundef %0, i64 noundef %1) #0 {
  %3 = alloca ptr, align 8
  %4 = alloca i64, align 8
  store ptr %0, ptr %3, align 8
  store i64 %1, ptr %4, align 8
  %5 = load ptr, ptr %3, align 8
  %6 = getelementptr inbounds %struct.lxb_dom_node, ptr %5, i32 0, i32 1
  %7 = load i64, ptr %6, align 8
  %8 = load i64, ptr %4, align 8
  %9 = icmp eq i64 %7, %8
  br i1 %9, label %10, label %15

10:                                               ; preds = %2
  %11 = load ptr, ptr %3, align 8
  %12 = getelementptr inbounds %struct.lxb_dom_node, ptr %11, i32 0, i32 3
  %13 = load i64, ptr %12, align 8
  %14 = icmp eq i64 %13, 2
  br label %15

15:                                               ; preds = %10, %2
  %16 = phi i1 [ false, %2 ], [ %14, %10 ]
  ret i1 %16
}

; Function Attrs: nounwind uwtable
define internal ptr @lxb_html_tree_open_elements_get(ptr noundef %0, i64 noundef %1) #0 {
  %3 = alloca ptr, align 8
  %4 = alloca i64, align 8
  store ptr %0, ptr %3, align 8
  store i64 %1, ptr %4, align 8
  %5 = load ptr, ptr %3, align 8
  %6 = getelementptr inbounds %struct.lxb_html_tree, ptr %5, i32 0, i32 4
  %7 = load ptr, ptr %6, align 8
  %8 = load i64, ptr %4, align 8
  %9 = call ptr @lexbor_array_get(ptr noundef %7, i64 noundef %8)
  ret ptr %9
}

; Function Attrs: nounwind uwtable
define internal ptr @lxb_html_tree_open_elements_first(ptr noundef %0) #0 {
  %2 = alloca ptr, align 8
  store ptr %0, ptr %2, align 8
  %3 = load ptr, ptr %2, align 8
  %4 = getelementptr inbounds %struct.lxb_html_tree, ptr %3, i32 0, i32 4
  %5 = load ptr, ptr %4, align 8
  %6 = call ptr @lexbor_array_get(ptr noundef %5, i64 noundef 0)
  ret ptr %6
}

; Function Attrs: nounwind uwtable
define internal ptr @lxb_html_tree_current_node(ptr noundef %0) #0 {
  %2 = alloca ptr, align 8
  %3 = alloca ptr, align 8
  store ptr %0, ptr %3, align 8
  %4 = load ptr, ptr %3, align 8
  %5 = getelementptr inbounds %struct.lxb_html_tree, ptr %4, i32 0, i32 4
  %6 = load ptr, ptr %5, align 8
  %7 = getelementptr inbounds %struct.lexbor_array_t, ptr %6, i32 0, i32 2
  %8 = load i64, ptr %7, align 8
  %9 = icmp eq i64 %8, 0
  br i1 %9, label %10, label %11

10:                                               ; preds = %1
  store ptr null, ptr %2, align 8
  br label %25

11:                                               ; preds = %1
  %12 = load ptr, ptr %3, align 8
  %13 = getelementptr inbounds %struct.lxb_html_tree, ptr %12, i32 0, i32 4
  %14 = load ptr, ptr %13, align 8
  %15 = getelementptr inbounds %struct.lexbor_array_t, ptr %14, i32 0, i32 0
  %16 = load ptr, ptr %15, align 8
  %17 = load ptr, ptr %3, align 8
  %18 = getelementptr inbounds %struct.lxb_html_tree, ptr %17, i32 0, i32 4
  %19 = load ptr, ptr %18, align 8
  %20 = getelementptr inbounds %struct.lexbor_array_t, ptr %19, i32 0, i32 2
  %21 = load i64, ptr %20, align 8
  %22 = sub i64 %21, 1
  %23 = getelementptr inbounds ptr, ptr %16, i64 %22
  %24 = load ptr, ptr %23, align 8
  store ptr %24, ptr %2, align 8
  br label %25

25:                                               ; preds = %11, %10
  %26 = load ptr, ptr %2, align 8
  ret ptr %26
}

; Function Attrs: nounwind uwtable
define hidden ptr @lxb_html_tree_appropriate_place_inserting_node(ptr noundef %0, ptr noundef %1, ptr noundef %2) #0 {
  %4 = alloca ptr, align 8
  %5 = alloca ptr, align 8
  %6 = alloca ptr, align 8
  %7 = alloca ptr, align 8
  %8 = alloca ptr, align 8
  %9 = alloca ptr, align 8
  %10 = alloca ptr, align 8
  %11 = alloca ptr, align 8
  %12 = alloca i64, align 8
  %13 = alloca i64, align 8
  %14 = alloca ptr, align 8
  %15 = alloca ptr, align 8
  store ptr %0, ptr %5, align 8
  store ptr %1, ptr %6, align 8
  store ptr %2, ptr %7, align 8
  store ptr null, ptr %9, align 8
  %16 = load ptr, ptr %7, align 8
  store i32 0, ptr %16, align 4
  %17 = load ptr, ptr %6, align 8
  %18 = icmp ne ptr %17, null
  br i1 %18, label %19, label %21

19:                                               ; preds = %3
  %20 = load ptr, ptr %6, align 8
  store ptr %20, ptr %8, align 8
  br label %24

21:                                               ; preds = %3
  %22 = load ptr, ptr %5, align 8
  %23 = call ptr @lxb_html_tree_current_node(ptr noundef %22)
  store ptr %23, ptr %8, align 8
  br label %24

24:                                               ; preds = %21, %19
  %25 = load ptr, ptr %5, align 8
  %26 = getelementptr inbounds %struct.lxb_html_tree, ptr %25, i32 0, i32 9
  %27 = load i8, ptr %26, align 8
  %28 = trunc i8 %27 to i1
  br i1 %28, label %29, label %100

29:                                               ; preds = %24
  %30 = load ptr, ptr %8, align 8
  %31 = getelementptr inbounds %struct.lxb_dom_node, ptr %30, i32 0, i32 3
  %32 = load i64, ptr %31, align 8
  %33 = icmp eq i64 %32, 2
  br i1 %33, label %34, label %100

34:                                               ; preds = %29
  %35 = load ptr, ptr %8, align 8
  %36 = getelementptr inbounds %struct.lxb_dom_node, ptr %35, i32 0, i32 1
  %37 = load i64, ptr %36, align 8
  %38 = icmp eq i64 %37, 176
  br i1 %38, label %59, label %39

39:                                               ; preds = %34
  %40 = load ptr, ptr %8, align 8
  %41 = getelementptr inbounds %struct.lxb_dom_node, ptr %40, i32 0, i32 1
  %42 = load i64, ptr %41, align 8
  %43 = icmp eq i64 %42, 177
  br i1 %43, label %59, label %44

44:                                               ; preds = %39
  %45 = load ptr, ptr %8, align 8
  %46 = getelementptr inbounds %struct.lxb_dom_node, ptr %45, i32 0, i32 1
  %47 = load i64, ptr %46, align 8
  %48 = icmp eq i64 %47, 182
  br i1 %48, label %59, label %49

49:                                               ; preds = %44
  %50 = load ptr, ptr %8, align 8
  %51 = getelementptr inbounds %struct.lxb_dom_node, ptr %50, i32 0, i32 1
  %52 = load i64, ptr %51, align 8
  %53 = icmp eq i64 %52, 184
  br i1 %53, label %59, label %54

54:                                               ; preds = %49
  %55 = load ptr, ptr %8, align 8
  %56 = getelementptr inbounds %struct.lxb_dom_node, ptr %55, i32 0, i32 1
  %57 = load i64, ptr %56, align 8
  %58 = icmp eq i64 %57, 187
  br i1 %58, label %59, label %100

59:                                               ; preds = %54, %49, %44, %39, %34
  %60 = load ptr, ptr %5, align 8
  %61 = call ptr @lxb_html_tree_open_elements_find_reverse(ptr noundef %60, i64 noundef 179, i64 noundef 2, ptr noundef %12)
  store ptr %61, ptr %10, align 8
  %62 = load ptr, ptr %5, align 8
  %63 = call ptr @lxb_html_tree_open_elements_find_reverse(ptr noundef %62, i64 noundef 176, i64 noundef 2, ptr noundef %13)
  store ptr %63, ptr %11, align 8
  %64 = load ptr, ptr %10, align 8
  %65 = icmp ne ptr %64, null
  br i1 %65, label %66, label %78

66:                                               ; preds = %59
  %67 = load ptr, ptr %11, align 8
  %68 = icmp eq ptr %67, null
  br i1 %68, label %73, label %69

69:                                               ; preds = %66
  %70 = load i64, ptr %12, align 8
  %71 = load i64, ptr %13, align 8
  %72 = icmp ugt i64 %70, %71
  br i1 %72, label %73, label %78

73:                                               ; preds = %69, %66
  %74 = load ptr, ptr %10, align 8
  %75 = getelementptr inbounds %struct.lxb_html_template_element, ptr %74, i32 0, i32 1
  %76 = load ptr, ptr %75, align 8
  store ptr %76, ptr %14, align 8
  %77 = load ptr, ptr %14, align 8
  store ptr %77, ptr %4, align 8
  br label %116

78:                                               ; preds = %69, %59
  %79 = load ptr, ptr %11, align 8
  %80 = icmp eq ptr %79, null
  br i1 %80, label %81, label %84

81:                                               ; preds = %78
  %82 = load ptr, ptr %5, align 8
  %83 = call ptr @lxb_html_tree_open_elements_first(ptr noundef %82)
  store ptr %83, ptr %9, align 8
  br label %98

84:                                               ; preds = %78
  %85 = load ptr, ptr %11, align 8
  %86 = getelementptr inbounds %struct.lxb_dom_node, ptr %85, i32 0, i32 7
  %87 = load ptr, ptr %86, align 8
  %88 = icmp ne ptr %87, null
  br i1 %88, label %89, label %92

89:                                               ; preds = %84
  %90 = load ptr, ptr %11, align 8
  store ptr %90, ptr %9, align 8
  %91 = load ptr, ptr %7, align 8
  store i32 1, ptr %91, align 4
  br label %97

92:                                               ; preds = %84
  %93 = load ptr, ptr %5, align 8
  %94 = load i64, ptr %13, align 8
  %95 = sub i64 %94, 1
  %96 = call ptr @lxb_html_tree_open_elements_get(ptr noundef %93, i64 noundef %95)
  store ptr %96, ptr %9, align 8
  br label %97

97:                                               ; preds = %92, %89
  br label %98

98:                                               ; preds = %97, %81
  br label %99

99:                                               ; preds = %98
  br label %102

100:                                              ; preds = %54, %29, %24
  %101 = load ptr, ptr %8, align 8
  store ptr %101, ptr %9, align 8
  br label %102

102:                                              ; preds = %100, %99
  %103 = load ptr, ptr %9, align 8
  %104 = icmp eq ptr %103, null
  br i1 %104, label %105, label %106

105:                                              ; preds = %102
  store ptr null, ptr %4, align 8
  br label %116

106:                                              ; preds = %102
  %107 = load ptr, ptr %9, align 8
  %108 = call zeroext i1 @lxb_html_tree_node_is(ptr noundef %107, i64 noundef 179)
  br i1 %108, label %109, label %114

109:                                              ; preds = %106
  %110 = load ptr, ptr %9, align 8
  %111 = getelementptr inbounds %struct.lxb_html_template_element, ptr %110, i32 0, i32 1
  %112 = load ptr, ptr %111, align 8
  store ptr %112, ptr %15, align 8
  %113 = load ptr, ptr %15, align 8
  store ptr %113, ptr %9, align 8
  br label %114

114:                                              ; preds = %109, %106
  %115 = load ptr, ptr %9, align 8
  store ptr %115, ptr %4, align 8
  br label %116

116:                                              ; preds = %114, %105, %73
  %117 = load ptr, ptr %4, align 8
  ret ptr %117
}