; Function Attrs: nounwind uwtable
define hidden ptr @lxb_html_tree_appropriate_place_inserting_node(ptr noundef %0, ptr noundef readonly %1, ptr nocapture noundef writeonly %2) local_unnamed_addr #0 {
  %4 = alloca i64, align 8
  %5 = alloca i64, align 8
  store i32 0, ptr %2, align 4
  %.not = icmp eq ptr %1, null
  br i1 %.not, label %6, label %lxb_html_tree_current_node.exit

6:                                                ; preds = %3
  %7 = getelementptr i8, ptr %0, i64 32
  %.val = load ptr, ptr %7, align 8
  %8 = getelementptr inbounds i8, ptr %.val, i64 16
  %9 = load i64, ptr %8, align 8
  %10 = icmp eq i64 %9, 0
  br i1 %10, label %lxb_html_tree_current_node.exit, label %11

11:                                               ; preds = %6
  %12 = load ptr, ptr %.val, align 8
  %13 = getelementptr ptr, ptr %12, i64 %9
  %14 = getelementptr i8, ptr %13, i64 -8
  %15 = load ptr, ptr %14, align 8
  br label %lxb_html_tree_current_node.exit

lxb_html_tree_current_node.exit:                  ; preds = %11, %6, %3
  %.030 = phi ptr [ %1, %3 ], [ %15, %11 ], [ null, %6 ]
  %16 = getelementptr inbounds i8, ptr %0, i64 80
  %17 = load i8, ptr %16, align 8
  %18 = and i8 %17, 1
  %.not36 = icmp eq i8 %18, 0
  br i1 %.not36, label %lxb_html_tree_open_elements_first.exit, label %19

19:                                               ; preds = %lxb_html_tree_current_node.exit
  %20 = getelementptr inbounds i8, ptr %.030, i64 24
  %21 = load i64, ptr %20, align 8
  %22 = icmp eq i64 %21, 2
  br i1 %22, label %23, label %lxb_html_tree_open_elements_first.exit.thread

23:                                               ; preds = %19
  %24 = getelementptr inbounds i8, ptr %.030, i64 8
  %25 = load i64, ptr %24, align 8
  switch i64 %25, label %lxb_html_tree_open_elements_first.exit.thread [
    i64 176, label %26
    i64 177, label %26
    i64 182, label %26
    i64 184, label %26
    i64 187, label %26
  ]

26:                                               ; preds = %23, %23, %23, %23, %23
  %27 = call ptr @lxb_html_tree_open_elements_find_reverse(ptr noundef nonnull %0, i64 noundef 179, i64 noundef 2, ptr noundef nonnull %4) #9
  %28 = call ptr @lxb_html_tree_open_elements_find_reverse(ptr noundef nonnull %0, i64 noundef 176, i64 noundef 2, ptr noundef nonnull %5) #9
  %.not37 = icmp eq ptr %27, null
  %29 = icmp eq ptr %28, null
  br i1 %.not37, label %35, label %30

30:                                               ; preds = %26
  br i1 %29, label %lxb_html_tree_open_elements_first.exit.thread45.sink.split, label %31

31:                                               ; preds = %30
  %32 = load i64, ptr %4, align 8
  %33 = load i64, ptr %5, align 8
  %34 = icmp ugt i64 %32, %33
  br i1 %34, label %lxb_html_tree_open_elements_first.exit.thread45.sink.split, label %.thread

35:                                               ; preds = %26
  br i1 %29, label %36, label %.thread

36:                                               ; preds = %35
  %37 = getelementptr i8, ptr %0, i64 32
  %.val39 = load ptr, ptr %37, align 8
  %38 = getelementptr inbounds i8, ptr %.val39, i64 16
  %39 = load i64, ptr %38, align 8
  %.not.i.not.i = icmp eq i64 %39, 0
  br i1 %.not.i.not.i, label %lxb_html_tree_open_elements_first.exit.thread45, label %40

40:                                               ; preds = %36
  %41 = load ptr, ptr %.val39, align 8
  br label %lxb_html_tree_open_elements_first.exit.sink.split

.thread:                                          ; preds = %31, %35
  %42 = getelementptr inbounds i8, ptr %28, i64 56
  %43 = load ptr, ptr %42, align 8
  %.not38 = icmp eq ptr %43, null
  br i1 %.not38, label %45, label %44

44:                                               ; preds = %.thread
  store i32 1, ptr %2, align 4
  br label %lxb_html_tree_open_elements_first.exit.thread

45:                                               ; preds = %.thread
  %46 = load i64, ptr %5, align 8
  %47 = add i64 %46, -1
  %48 = getelementptr i8, ptr %0, i64 32
  %.val40 = load ptr, ptr %48, align 8
  %49 = getelementptr inbounds i8, ptr %.val40, i64 16
  %50 = load i64, ptr %49, align 8
  %.not.i.i = icmp ugt i64 %50, %47
  br i1 %.not.i.i, label %51, label %lxb_html_tree_open_elements_first.exit.thread45

51:                                               ; preds = %45
  %52 = load ptr, ptr %.val40, align 8
  %53 = getelementptr inbounds ptr, ptr %52, i64 %47
  br label %lxb_html_tree_open_elements_first.exit.sink.split

lxb_html_tree_open_elements_first.exit.sink.split: ; preds = %40, %51
  %.sink = phi ptr [ %53, %51 ], [ %41, %40 ]
  %54 = load ptr, ptr %.sink, align 8
  br label %lxb_html_tree_open_elements_first.exit

lxb_html_tree_open_elements_first.exit:           ; preds = %lxb_html_tree_open_elements_first.exit.sink.split, %lxb_html_tree_current_node.exit
  %.031 = phi ptr [ %.030, %lxb_html_tree_current_node.exit ], [ %54, %lxb_html_tree_open_elements_first.exit.sink.split ]
  %55 = icmp eq ptr %.031, null
  br i1 %55, label %lxb_html_tree_open_elements_first.exit.thread45, label %lxb_html_tree_open_elements_first.exit.thread

lxb_html_tree_open_elements_first.exit.thread:    ; preds = %19, %23, %44, %lxb_html_tree_open_elements_first.exit
  %.03143 = phi ptr [ %.031, %lxb_html_tree_open_elements_first.exit ], [ %.030, %19 ], [ %.030, %23 ], [ %28, %44 ]
  %56 = getelementptr inbounds i8, ptr %.03143, i64 8
  %57 = load i64, ptr %56, align 8
  %58 = icmp eq i64 %57, 179
  br i1 %58, label %lxb_html_tree_node_is.exit, label %lxb_html_tree_open_elements_first.exit.thread45

lxb_html_tree_node_is.exit:                       ; preds = %lxb_html_tree_open_elements_first.exit.thread
  %59 = getelementptr inbounds i8, ptr %.03143, i64 24
  %60 = load i64, ptr %59, align 8
  %61 = icmp eq i64 %60, 2
  br i1 %61, label %lxb_html_tree_open_elements_first.exit.thread45.sink.split, label %lxb_html_tree_open_elements_first.exit.thread45

lxb_html_tree_open_elements_first.exit.thread45.sink.split: ; preds = %lxb_html_tree_node_is.exit, %30, %31
  %.03143.sink = phi ptr [ %27, %31 ], [ %27, %30 ], [ %.03143, %lxb_html_tree_node_is.exit ]
  %62 = getelementptr inbounds i8, ptr %.03143.sink, i64 184
  %63 = load ptr, ptr %62, align 8
  br label %lxb_html_tree_open_elements_first.exit.thread45

lxb_html_tree_open_elements_first.exit.thread45:  ; preds = %lxb_html_tree_open_elements_first.exit.thread45.sink.split, %lxb_html_tree_open_elements_first.exit.thread, %45, %36, %lxb_html_tree_node_is.exit, %lxb_html_tree_open_elements_first.exit
  %.0 = phi ptr [ null, %lxb_html_tree_open_elements_first.exit ], [ %.03143, %lxb_html_tree_node_is.exit ], [ null, %36 ], [ null, %45 ], [ %.03143, %lxb_html_tree_open_elements_first.exit.thread ], [ %63, %lxb_html_tree_open_elements_first.exit.thread45.sink.split ]
  ret ptr %.0
}